target datalayout = "e-m:e-p270:32:32-p271:32:32-p272:64:64-i64:64-i128:128-f80:128-n8:16:32:64-S128"
target triple = "x86_64-pc-linux-gnu"

%struct.ParseState = type { ptr, ptr, i32, i32, ptr, ptr, ptr, ptr, ptr, ptr, i8, ptr, ptr, ptr, ptr, ptr, ptr, i8, ptr, i32, i32, ptr, ptr, i8, i8, ptr, i8, i8, i8, i8, i8, ptr, ptr, ptr, ptr, ptr, ptr }
%struct.Node = type { i32 }
%struct.Expr = type { i32 }
%union.ListCell = type { ptr }
%struct.String = type { i32, ptr }
%struct.ForEachState = type { ptr, i32 }
%struct.A_Indirection = type { i32, ptr, ptr }
%struct.List = type { i32, i32, i32, ptr, [0 x %union.ListCell] }
%struct.Alias = type { i32, ptr, ptr }
%struct.RangeTblEntry = type { i32, ptr, ptr, i32, i32, i8, i8, i32, i32, ptr, ptr, i8, i32, i32, ptr, ptr, ptr, ptr, ptr, i8, ptr, ptr, ptr, i32, i8, ptr, ptr, ptr, ptr, double, ptr, i8, i8, ptr }
%struct.Var = type { %struct.Expr, i32, i16, i32, i32, i32, ptr, i32, i32, i32, i16, i32 }

@.str.41 = private unnamed_addr constant [13 x i8] c"parse_expr.c\00", align 1
@.str.51 = private unnamed_addr constant [44 x i8] c"row expansion via \22*\22 is not supported here\00", align 1
@__func__.transformIndirection = private unnamed_addr constant [21 x i8] c"transformIndirection\00", align 1
@.str.52 = private unnamed_addr constant [28 x i8] c"column %s.%s does not exist\00", align 1
@__func__.unknown_attribute = private unnamed_addr constant [18 x i8] c"unknown_attribute\00", align 1
@.str.53 = private unnamed_addr constant [38 x i8] c"column \22%s\22 not found in data type %s\00", align 1
@.str.54 = private unnamed_addr constant [51 x i8] c"could not identify column \22%s\22 in record data type\00", align 1
@.str.55 = private unnamed_addr constant [70 x i8] c"column notation .%s applied to type %s, which is not a composite type\00", align 1

; Function Attrs: nounwind uwtable
define internal void @unknown_attribute(ptr noundef %0, ptr noundef %1, ptr noundef %2, i32 noundef %3) #0 {
  %5 = alloca ptr, align 8
  %6 = alloca ptr, align 8
  %7 = alloca ptr, align 8
  %8 = alloca i32, align 4
  %9 = alloca ptr, align 8
  %10 = alloca i32, align 4
  store ptr %0, ptr %5, align 8
  store ptr %1, ptr %6, align 8
  store ptr %2, ptr %7, align 8
  store i32 %3, ptr %8, align 4
  call void @llvm.lifetime.start.p0(i64 8, ptr %9) #8
  %11 = load ptr, ptr %6, align 8
  %12 = getelementptr inbounds nuw %struct.Node, ptr %11, i32 0, i32 0
  %13 = load i32, ptr %12, align 4
  %14 = icmp eq i32 %13, 6
  br i1 %14, label %15, label %50

15:                                               ; preds = %4
  %16 = load ptr, ptr %6, align 8
  %17 = getelementptr inbounds nuw %struct.Var, ptr %16, i32 0, i32 2
  %18 = load i16, ptr %17, align 8
  %19 = sext i16 %18 to i32
  %20 = icmp eq i32 %19, 0
  br i1 %20, label %21, label %50

21:                                               ; preds = %15
  %22 = load ptr, ptr %5, align 8
  %23 = load ptr, ptr %6, align 8
  %24 = getelementptr inbounds nuw %struct.Var, ptr %23, i32 0, i32 1
  %25 = load i32, ptr %24, align 4
  %26 = load ptr, ptr %6, align 8
  %27 = getelementptr inbounds nuw %struct.Var, ptr %26, i32 0, i32 7
  %28 = load i32, ptr %27, align 8
  %29 = call ptr @GetRTEByRangeTablePosn(ptr noundef %22, i32 noundef %25, i32 noundef %28)
  store ptr %29, ptr %9, align 8
  br label %30

30:                                               ; preds = %21
  br i1 true, label %31, label %33

31:                                               ; preds = %30
  %32 = call zeroext i1 @errstart_cold(i32 noundef 21, ptr noundef null) #9
  br i1 %32, label %35, label %47

33:                                               ; preds = %30
  %34 = call zeroext i1 @errstart(i32 noundef 21, ptr noundef null)
  br i1 %34, label %35, label %47

35:                                               ; preds = %33, %31
  %36 = call i32 @errcode(i32 noundef 50360452)
  %37 = load ptr, ptr %9, align 8
  %38 = getelementptr inbounds nuw %struct.RangeTblEntry, ptr %37, i32 0, i32 2
  %39 = load ptr, ptr %38, align 8
  %40 = getelementptr inbounds nuw %struct.Alias, ptr %39, i32 0, i32 1
  %41 = load ptr, ptr %40, align 8
  %42 = load ptr, ptr %7, align 8
  %43 = call i32 (ptr, ...) @errmsg(ptr noundef @.str.52, ptr noundef %41, ptr noundef %42)
  %44 = load ptr, ptr %5, align 8
  %45 = load i32, ptr %8, align 4
  %46 = call i32 @parser_errposition(ptr noundef %44, i32 noundef %45)
  call void @errfinish(ptr noundef @.str.41, i32 noundef 406, ptr noundef @__func__.unknown_attribute)
  br label %47

47:                                               ; preds = %35, %33, %31
  unreachable

48:                                               ; No predecessors!
  br label %49

49:                                               ; preds = %48
  br label %113

50:                                               ; preds = %15, %4
  call void @llvm.lifetime.start.p0(i64 4, ptr %10) #8
  %51 = load ptr, ptr %6, align 8
  %52 = call i32 @exprType(ptr noundef %51)
  store i32 %52, ptr %10, align 4
  %53 = load i32, ptr %10, align 4
  %54 = call i32 @typeOrDomainTypeRelid(i32 noundef %53)
  %55 = icmp ne i32 %54, 0
  br i1 %55, label %56, label %74

56:                                               ; preds = %50
  br label %57

57:                                               ; preds = %56
  br i1 true, label %58, label %60

58:                                               ; preds = %57
  %59 = call zeroext i1 @errstart_cold(i32 noundef 21, ptr noundef null) #9
  br i1 %59, label %62, label %71

60:                                               ; preds = %57
  %61 = call zeroext i1 @errstart(i32 noundef 21, ptr noundef null)
  br i1 %61, label %62, label %71

62:                                               ; preds = %60, %58
  %63 = call i32 @errcode(i32 noundef 50360452)
  %64 = load ptr, ptr %7, align 8
  %65 = load i32, ptr %10, align 4
  %66 = call ptr @format_type_be(i32 noundef %65)
  %67 = call i32 (ptr, ...) @errmsg(ptr noundef @.str.53, ptr noundef %64, ptr noundef %66)
  %68 = load ptr, ptr %5, align 8
  %69 = load i32, ptr %8, align 4
  %70 = call i32 @parser_errposition(ptr noundef %68, i32 noundef %69)
  call void @errfinish(ptr noundef @.str.41, i32 noundef 418, ptr noundef @__func__.unknown_attribute)
  br label %71

71:                                               ; preds = %62, %60, %58
  unreachable

72:                                               ; No predecessors!
  br label %73

73:                                               ; preds = %72
  br label %112

74:                                               ; preds = %50
  %75 = load i32, ptr %10, align 4
  %76 = icmp eq i32 %75, 2249
  br i1 %76, label %77, label %93

77:                                               ; preds = %74
  br label %78

78:                                               ; preds = %77
  br i1 true, label %79, label %81

79:                                               ; preds = %78
  %80 = call zeroext i1 @errstart_cold(i32 noundef 21, ptr noundef null) #9
  br i1 %80, label %83, label %90

81:                                               ; preds = %78
  %82 = call zeroext i1 @errstart(i32 noundef 21, ptr noundef null)
  br i1 %82, label %83, label %90

83:                                               ; preds = %81, %79
  %84 = call i32 @errcode(i32 noundef 50360452)
  %85 = load ptr, ptr %7, align 8
  %86 = call i32 (ptr, ...) @errmsg(ptr noundef @.str.54, ptr noundef %85)
  %87 = load ptr, ptr %5, align 8
  %88 = load i32, ptr %8, align 4
  %89 = call i32 @parser_errposition(ptr noundef %87, i32 noundef %88)
  call void @errfinish(ptr noundef @.str.41, i32 noundef 424, ptr noundef @__func__.unknown_attribute)
  br label %90

90:                                               ; preds = %83, %81, %79
  unreachable

91:                                               ; No predecessors!
  br label %92

92:                                               ; preds = %91
  br label %111

93:                                               ; preds = %74
  br label %94

94:                                               ; preds = %93
  br i1 true, label %95, label %97

95:                                               ; preds = %94
  %96 = call zeroext i1 @errstart_cold(i32 noundef 21, ptr noundef null) #9
  br i1 %96, label %99, label %108

97:                                               ; preds = %94
  %98 = call zeroext i1 @errstart(i32 noundef 21, ptr noundef null)
  br i1 %98, label %99, label %108

99:                                               ; preds = %97, %95
  %100 = call i32 @errcode(i32 noundef 151027844)
  %101 = load ptr, ptr %7, align 8
  %102 = load i32, ptr %10, align 4
  %103 = call ptr @format_type_be(i32 noundef %102)
  %104 = call i32 (ptr, ...) @errmsg(ptr noundef @.str.55, ptr noundef %101, ptr noundef %103)
  %105 = load ptr, ptr %5, align 8
  %106 = load i32, ptr %8, align 4
  %107 = call i32 @parser_errposition(ptr noundef %105, i32 noundef %106)
  call void @errfinish(ptr noundef @.str.41, i32 noundef 431, ptr noundef @__func__.unknown_attribute)
  br label %108

108:                                              ; preds = %99, %97, %95
  unreachable

109:                                              ; No predecessors!
  br label %110

110:                                              ; preds = %109
  br label %111

111:                                              ; preds = %110, %92
  br label %112

112:                                              ; preds = %111, %73
  call void @llvm.lifetime.end.p0(i64 4, ptr %10) #8
  br label %113

113:                                              ; preds = %112, %49
  call void @llvm.lifetime.end.p0(i64 8, ptr %9) #8
  ret void
}

; Function Attrs: nounwind uwtable
define internal ptr @transformIndirection(ptr noundef %0, ptr noundef %1) #0 {
  %3 = alloca ptr, align 8
  %4 = alloca ptr, align 8
  %5 = alloca ptr, align 8
  %6 = alloca ptr, align 8
  %7 = alloca ptr, align 8
  %8 = alloca i32, align 4
  %9 = alloca ptr, align 8
  %10 = alloca %struct.ForEachState, align 8
  %11 = alloca ptr, align 8
  %12 = alloca ptr, align 8
  %13 = alloca %union.ListCell, align 8
  %14 = alloca %union.ListCell, align 8
  store ptr %0, ptr %3, align 8
  store ptr %1, ptr %4, align 8
  call void @llvm.lifetime.start.p0(i64 8, ptr %5) #8
  %15 = load ptr, ptr %3, align 8
  %16 = getelementptr inbounds nuw %struct.ParseState, ptr %15, i32 0, i32 31
  %17 = load ptr, ptr %16, align 8
  store ptr %17, ptr %5, align 8
  call void @llvm.lifetime.start.p0(i64 8, ptr %6) #8
  %18 = load ptr, ptr %3, align 8
  %19 = load ptr, ptr %4, align 8
  %20 = getelementptr inbounds nuw %struct.A_Indirection, ptr %19, i32 0, i32 1
  %21 = load ptr, ptr %20, align 8
  %22 = call ptr @transformExprRecurse(ptr noundef %18, ptr noundef %21)
  store ptr %22, ptr %6, align 8
  call void @llvm.lifetime.start.p0(i64 8, ptr %7) #8
  store ptr null, ptr %7, align 8
  call void @llvm.lifetime.start.p0(i64 4, ptr %8) #8
  %23 = load ptr, ptr %6, align 8
  %24 = call i32 @exprLocation(ptr noundef %23)
  store i32 %24, ptr %8, align 4
  call void @llvm.lifetime.start.p0(i64 8, ptr %9) #8
  call void @llvm.lifetime.start.p0(i64 16, ptr %10) #8
  %25 = getelementptr inbounds nuw %struct.ForEachState, ptr %10, i32 0, i32 0
  %26 = load ptr, ptr %4, align 8
  %27 = getelementptr inbounds nuw %struct.A_Indirection, ptr %26, i32 0, i32 2
  %28 = load ptr, ptr %27, align 8
  store ptr %28, ptr %25, align 8
  %29 = getelementptr inbounds nuw %struct.ForEachState, ptr %10, i32 0, i32 1
  store i32 0, ptr %29, align 8
  %30 = getelementptr i8, ptr %10, i64 12
  call void @llvm.memset.p0.i64(ptr align 4 %30, i8 0, i64 4, i1 false)
  br label %31

31:                                               ; preds = %126, %2
  %32 = getelementptr inbounds nuw %struct.ForEachState, ptr %10, i32 0, i32 0
  %33 = load ptr, ptr %32, align 8
  %34 = icmp ne ptr %33, null
  br i1 %34, label %35, label %52

35:                                               ; preds = %31
  %36 = getelementptr inbounds nuw %struct.ForEachState, ptr %10, i32 0, i32 1
  %37 = load i32, ptr %36, align 8
  %38 = getelementptr inbounds nuw %struct.ForEachState, ptr %10, i32 0, i32 0
  %39 = load ptr, ptr %38, align 8
  %40 = getelementptr inbounds nuw %struct.List, ptr %39, i32 0, i32 1
  %41 = load i32, ptr %40, align 4
  %42 = icmp slt i32 %37, %41
  br i1 %42, label %43, label %52

43:                                               ; preds = %35
  %44 = getelementptr inbounds nuw %struct.ForEachState, ptr %10, i32 0, i32 0
  %45 = load ptr, ptr %44, align 8
  %46 = getelementptr inbounds nuw %struct.List, ptr %45, i32 0, i32 3
  %47 = load ptr, ptr %46, align 8
  %48 = getelementptr inbounds nuw %struct.ForEachState, ptr %10, i32 0, i32 1
  %49 = load i32, ptr %48, align 8
  %50 = sext i32 %49 to i64
  %51 = getelementptr inbounds %union.ListCell, ptr %47, i64 %50
  store ptr %51, ptr %9, align 8
  br label %53

52:                                               ; preds = %35, %31
  store ptr null, ptr %9, align 8
  br label %53

53:                                               ; preds = %52, %43
  %54 = phi i32 [ 1, %43 ], [ 0, %52 ]
  %55 = icmp ne i32 %54, 0
  br i1 %55, label %57, label %56

56:                                               ; preds = %53
  call void @llvm.lifetime.end.p0(i64 16, ptr %10) #8
  br label %130

57:                                               ; preds = %53
  call void @llvm.lifetime.start.p0(i64 8, ptr %11) #8
  %58 = load ptr, ptr %9, align 8
  %59 = load ptr, ptr %58, align 8
  store ptr %59, ptr %11, align 8
  %60 = load ptr, ptr %11, align 8
  %61 = getelementptr inbounds nuw %struct.Node, ptr %60, i32 0, i32 0
  %62 = load i32, ptr %61, align 4
  %63 = icmp eq i32 %62, 78
  br i1 %63, label %64, label %68

64:                                               ; preds = %57
  %65 = load ptr, ptr %7, align 8
  %66 = load ptr, ptr %11, align 8
  %67 = call ptr @lappend(ptr noundef %65, ptr noundef %66)
  store ptr %67, ptr %7, align 8
  br label %125

68:                                               ; preds = %57
  %69 = load ptr, ptr %11, align 8
  %70 = getelementptr inbounds nuw %struct.Node, ptr %69, i32 0, i32 0
  %71 = load i32, ptr %70, align 4
  %72 = icmp eq i32 %71, 77
  br i1 %72, label %73, label %88

73:                                               ; preds = %68
  br label %74

74:                                               ; preds = %73
  br i1 true, label %75, label %77

75:                                               ; preds = %74
  %76 = call zeroext i1 @errstart_cold(i32 noundef 21, ptr noundef null) #9
  br i1 %76, label %79, label %85

77:                                               ; preds = %74
  %78 = call zeroext i1 @errstart(i32 noundef 21, ptr noundef null)
  br i1 %78, label %79, label %85

79:                                               ; preds = %77, %75
  %80 = call i32 @errcode(i32 noundef 1088)
  %81 = call i32 (ptr, ...) @errmsg(ptr noundef @.str.51)
  %82 = load ptr, ptr %3, align 8
  %83 = load i32, ptr %8, align 4
  %84 = call i32 @parser_errposition(ptr noundef %82, i32 noundef %83)
  call void @errfinish(ptr noundef @.str.41, i32 noundef 460, ptr noundef @__func__.transformIndirection)
  br label %85

85:                                               ; preds = %79, %77, %75
  unreachable

86:                                               ; No predecessors!
  br label %87

87:                                               ; preds = %86
  br label %124

88:                                               ; preds = %68
  call void @llvm.lifetime.start.p0(i64 8, ptr %12) #8
  %89 = load ptr, ptr %7, align 8
  %90 = icmp ne ptr %89, null
  br i1 %90, label %91, label %100

91:                                               ; preds = %88
  %92 = load ptr, ptr %3, align 8
  %93 = load ptr, ptr %6, align 8
  %94 = load ptr, ptr %6, align 8
  %95 = call i32 @exprType(ptr noundef %94)
  %96 = load ptr, ptr %6, align 8
  %97 = call i32 @exprTypmod(ptr noundef %96)
  %98 = load ptr, ptr %7, align 8
  %99 = call ptr @transformContainerSubscripts(ptr noundef %92, ptr noundef %93, i32 noundef %95, i32 noundef %97, ptr noundef %98, i1 noundef zeroext false)
  store ptr %99, ptr %6, align 8
  br label %100

100:                                              ; preds = %91, %88
  store ptr null, ptr %7, align 8
  %101 = load ptr, ptr %3, align 8
  %102 = load ptr, ptr %11, align 8
  store ptr %102, ptr %13, align 8
  %103 = getelementptr inbounds nuw %union.ListCell, ptr %13, i32 0, i32 0
  %104 = load ptr, ptr %103, align 8
  %105 = call ptr @list_make1_impl(i32 noundef 1, ptr %104)
  %106 = load ptr, ptr %6, align 8
  store ptr %106, ptr %14, align 8
  %107 = getelementptr inbounds nuw %union.ListCell, ptr %14, i32 0, i32 0
  %108 = load ptr, ptr %107, align 8
  %109 = call ptr @list_make1_impl(i32 noundef 1, ptr %108)
  %110 = load ptr, ptr %5, align 8
  %111 = load i32, ptr %8, align 4
  %112 = call ptr @ParseFuncOrColumn(ptr noundef %101, ptr noundef %105, ptr noundef %109, ptr noundef %110, ptr noundef null, i1 noundef zeroext false, i32 noundef %111)
  store ptr %112, ptr %12, align 8
  %113 = load ptr, ptr %12, align 8
  %114 = icmp eq ptr %113, null
  br i1 %114, label %115, label %122

115:                                              ; preds = %100
  %116 = load ptr, ptr %3, align 8
  %117 = load ptr, ptr %6, align 8
  %118 = load ptr, ptr %11, align 8
  %119 = getelementptr inbounds nuw %struct.String, ptr %118, i32 0, i32 1
  %120 = load ptr, ptr %119, align 8
  %121 = load i32, ptr %8, align 4
  call void @unknown_attribute(ptr noundef %116, ptr noundef %117, ptr noundef %120, i32 noundef %121)
  br label %122

122:                                              ; preds = %115, %100
  %123 = load ptr, ptr %12, align 8
  store ptr %123, ptr %6, align 8
  call void @llvm.lifetime.end.p0(i64 8, ptr %12) #8
  br label %124

124:                                              ; preds = %122, %87
  br label %125

125:                                              ; preds = %124, %64
  call void @llvm.lifetime.end.p0(i64 8, ptr %11) #8
  br label %126

126:                                              ; preds = %125
  %127 = getelementptr inbounds nuw %struct.ForEachState, ptr %10, i32 0, i32 1
  %128 = load i32, ptr %127, align 8
  %129 = add i32 %128, 1
  store i32 %129, ptr %127, align 8
  br label %31, !llvm.loop !4

130:                                              ; preds = %56
  %131 = load ptr, ptr %7, align 8
  %132 = icmp ne ptr %131, null
  br i1 %132, label %133, label %142

133:                                              ; preds = %130
  %134 = load ptr, ptr %3, align 8
  %135 = load ptr, ptr %6, align 8
  %136 = load ptr, ptr %6, align 8
  %137 = call i32 @exprType(ptr noundef %136)
  %138 = load ptr, ptr %6, align 8
  %139 = call i32 @exprTypmod(ptr noundef %138)
  %140 = load ptr, ptr %7, align 8
  %141 = call ptr @transformContainerSubscripts(ptr noundef %134, ptr noundef %135, i32 noundef %137, i32 noundef %139, ptr noundef %140, i1 noundef zeroext false)
  store ptr %141, ptr %6, align 8
  br label %142

142:                                              ; preds = %133, %130
  %143 = load ptr, ptr %6, align 8
  call void @llvm.lifetime.end.p0(i64 8, ptr %9) #8
  call void @llvm.lifetime.end.p0(i64 4, ptr %8) #8
  call void @llvm.lifetime.end.p0(i64 8, ptr %7) #8
  call void @llvm.lifetime.end.p0(i64 8, ptr %6) #8
  call void @llvm.lifetime.end.p0(i64 8, ptr %5) #8
  ret ptr %143
}