; Function Attrs: nounwind uwtable
define internal fastcc ptr @transformIndirection(ptr noundef %0, ptr noundef nonnull readonly captures(none) %1) unnamed_addr #0 {
  %3 = getelementptr inbounds nuw i8, ptr %0, i64 192
  %4 = load ptr, ptr %3, align 8
  %5 = getelementptr inbounds nuw i8, ptr %1, i64 8
  %6 = load ptr, ptr %5, align 8
  %7 = tail call fastcc ptr @transformExprRecurse(ptr noundef %0, ptr noundef %6)
  %8 = tail call i32 @exprLocation(ptr noundef %7) #9
  %9 = getelementptr inbounds nuw i8, ptr %1, i64 16
  %10 = load ptr, ptr %9, align 8
  %.not = icmp eq ptr %10, null
  br i1 %.not, label %._crit_edge.thread, label %.lr.ph

.lr.ph:                                           ; preds = %2
  %11 = getelementptr inbounds nuw i8, ptr %10, i64 4
  %12 = getelementptr inbounds nuw i8, ptr %10, i64 16
  %13 = load i32, ptr %11, align 4
  %14 = icmp sgt i32 %13, 0
  br i1 %14, label %.lr.ph73, label %._crit_edge.thread

._crit_edge:                                      ; preds = %78
  %.not47 = icmp eq ptr %.142, null
  br i1 %.not47, label %._crit_edge.thread, label %82

.lr.ph73:                                         ; preds = %.lr.ph, %78
  %indvars.iv = phi i64 [ %indvars.iv.next, %78 ], [ 0, %.lr.ph ]
  %.0415771 = phi ptr [ %.142, %78 ], [ null, %.lr.ph ]
  %.05870 = phi ptr [ %.1, %78 ], [ %7, %.lr.ph ]
  %15 = load ptr, ptr %12, align 8
  %16 = getelementptr inbounds nuw %union.ListCell, ptr %15, i64 %indvars.iv
  %17 = load ptr, ptr %16, align 8
  %18 = load i32, ptr %17, align 4
  switch i32 %18, label %25 [
    i32 78, label %19
    i32 77, label %.split
  ]

19:                                               ; preds = %.lr.ph73
  %20 = tail call ptr @lappend(ptr noundef %.0415771, ptr noundef nonnull %17) #9
  br label %78

.split:                                           ; preds = %.lr.ph73
  %21 = tail call zeroext i1 @errstart_cold(i32 noundef 21, ptr noundef null) #10
  tail call void @llvm.assume(i1 %21)
  %22 = tail call i32 @errcode(i32 noundef 1088) #9
  %23 = tail call i32 (ptr, ...) @errmsg(ptr noundef nonnull @.str.51) #9
  %24 = tail call i32 @parser_errposition(ptr noundef %0, i32 noundef %8) #9
  tail call void @errfinish(ptr noundef nonnull @.str.41, i32 noundef 460, ptr noundef nonnull @__func__.transformIndirection) #9
  unreachable

25:                                               ; preds = %.lr.ph73
  %.not48 = icmp eq ptr %.0415771, null
  br i1 %.not48, label %30, label %26

26:                                               ; preds = %25
  %27 = tail call i32 @exprType(ptr noundef %.05870) #9
  %28 = tail call i32 @exprTypmod(ptr noundef %.05870) #9
  %29 = tail call ptr @transformContainerSubscripts(ptr noundef %0, ptr noundef %.05870, i32 noundef %27, i32 noundef %28, ptr noundef nonnull %.0415771, i1 noundef zeroext false) #9
  br label %30

30:                                               ; preds = %26, %25
  %.2 = phi ptr [ %29, %26 ], [ %.05870, %25 ]
  %31 = tail call ptr @list_make1_impl(i32 noundef 1, ptr nonnull %17) #9
  %32 = tail call ptr @list_make1_impl(i32 noundef 1, ptr %.2) #9
  %33 = tail call ptr @ParseFuncOrColumn(ptr noundef %0, ptr noundef %31, ptr noundef %32, ptr noundef %4, ptr noundef null, i1 noundef zeroext false, i32 noundef %8) #9
  %34 = icmp eq ptr %33, null
  br i1 %34, label %.split65, label %78

.split65:                                         ; preds = %30
  %35 = getelementptr inbounds nuw i8, ptr %17, i64 8
  %36 = load ptr, ptr %35, align 8
  %37 = load i32, ptr %.2, align 4
  %38 = icmp eq i32 %37, 6
  br i1 %38, label %39, label %57

39:                                               ; preds = %.split65
  %40 = getelementptr inbounds nuw i8, ptr %.2, i64 8
  %41 = load i16, ptr %40, align 8
  %42 = icmp eq i16 %41, 0
  br i1 %42, label %43, label %57

43:                                               ; preds = %39
  %44 = getelementptr inbounds nuw i8, ptr %.2, i64 4
  %45 = load i32, ptr %44, align 4
  %46 = getelementptr inbounds nuw i8, ptr %.2, i64 32
  %47 = load i32, ptr %46, align 8
  %48 = tail call ptr @GetRTEByRangeTablePosn(ptr noundef %0, i32 noundef %45, i32 noundef %47) #9
  %49 = tail call zeroext i1 @errstart_cold(i32 noundef 21, ptr noundef null) #10
  tail call void @llvm.assume(i1 %49)
  %50 = tail call i32 @errcode(i32 noundef 50360452) #9
  %51 = getelementptr inbounds nuw i8, ptr %48, i64 16
  %52 = load ptr, ptr %51, align 8
  %53 = getelementptr inbounds nuw i8, ptr %52, i64 8
  %54 = load ptr, ptr %53, align 8
  %55 = tail call i32 (ptr, ...) @errmsg(ptr noundef nonnull @.str.52, ptr noundef %54, ptr noundef %36) #9
  %56 = tail call i32 @parser_errposition(ptr noundef %0, i32 noundef %8) #9
  tail call void @errfinish(ptr noundef nonnull @.str.41, i32 noundef 406, ptr noundef nonnull @__func__.unknown_attribute) #9
  unreachable

57:                                               ; preds = %39, %.split65
  %58 = tail call i32 @exprType(ptr noundef nonnull %.2) #9
  %59 = tail call i32 @typeOrDomainTypeRelid(i32 noundef %58) #9
  %.not.i = icmp eq i32 %59, 0
  br i1 %.not.i, label %66, label %60

60:                                               ; preds = %57
  %61 = tail call zeroext i1 @errstart_cold(i32 noundef 21, ptr noundef null) #10
  tail call void @llvm.assume(i1 %61)
  %62 = tail call i32 @errcode(i32 noundef 50360452) #9
  %63 = tail call ptr @format_type_be(i32 noundef %58) #9
  %64 = tail call i32 (ptr, ...) @errmsg(ptr noundef nonnull @.str.53, ptr noundef %36, ptr noundef %63) #9
  %65 = tail call i32 @parser_errposition(ptr noundef %0, i32 noundef %8) #9
  tail call void @errfinish(ptr noundef nonnull @.str.41, i32 noundef 418, ptr noundef nonnull @__func__.unknown_attribute) #9
  unreachable

66:                                               ; preds = %57
  %67 = icmp eq i32 %58, 2249
  %68 = tail call zeroext i1 @errstart_cold(i32 noundef 21, ptr noundef null) #10
  tail call void @llvm.assume(i1 %68)
  br i1 %67, label %69, label %73

69:                                               ; preds = %66
  %70 = tail call i32 @errcode(i32 noundef 50360452) #9
  %71 = tail call i32 (ptr, ...) @errmsg(ptr noundef nonnull @.str.54, ptr noundef %36) #9
  %72 = tail call i32 @parser_errposition(ptr noundef %0, i32 noundef %8) #9
  tail call void @errfinish(ptr noundef nonnull @.str.41, i32 noundef 424, ptr noundef nonnull @__func__.unknown_attribute) #9
  unreachable

73:                                               ; preds = %66
  %74 = tail call i32 @errcode(i32 noundef 151027844) #9
  %75 = tail call ptr @format_type_be(i32 noundef %58) #9
  %76 = tail call i32 (ptr, ...) @errmsg(ptr noundef nonnull @.str.55, ptr noundef %36, ptr noundef %75) #9
  %77 = tail call i32 @parser_errposition(ptr noundef %0, i32 noundef %8) #9
  tail call void @errfinish(ptr noundef nonnull @.str.41, i32 noundef 431, ptr noundef nonnull @__func__.unknown_attribute) #9
  unreachable

78:                                               ; preds = %30, %19
  %.142 = phi ptr [ %20, %19 ], [ null, %30 ]
  %.1 = phi ptr [ %.05870, %19 ], [ %33, %30 ]
  %indvars.iv.next = add nuw nsw i64 %indvars.iv, 1
  %79 = load i32, ptr %11, align 4
  %80 = sext i32 %79 to i64
  %81 = icmp slt i64 %indvars.iv.next, %80
  br i1 %81, label %.lr.ph73, label %._crit_edge

82:                                               ; preds = %._crit_edge
  %83 = tail call i32 @exprType(ptr noundef %.1) #9
  %84 = tail call i32 @exprTypmod(ptr noundef %.1) #9
  %85 = tail call ptr @transformContainerSubscripts(ptr noundef %0, ptr noundef %.1, i32 noundef %83, i32 noundef %84, ptr noundef nonnull %.142, i1 noundef zeroext false) #9
  br label %._crit_edge.thread

._crit_edge.thread:                               ; preds = %.lr.ph, %2, %82, %._crit_edge
  %.3 = phi ptr [ %85, %82 ], [ %.1, %._crit_edge ], [ %7, %2 ], [ %7, %.lr.ph ]
  ret ptr %.3
}